target datalayout = "e-m:e-p270:32:32-p271:32:32-p272:64:64-i64:64-i128:128-f80:128-n8:16:32:64-S128"
target triple = "x86_64-unknown-linux-gnu"

%class.btAngularLimit = type <{ float, float, float, float, float, float, float, i8, [3 x i8] }>

; Function Attrs: mustprogress nounwind uwtable
define dso_local noundef float @_ZNK14btAngularLimit8getErrorEv(ptr noundef nonnull align 4 dereferenceable(29) %this) #1 align 2 {
entry:
  %this.addr = alloca ptr, align 8
  store ptr %this, ptr %this.addr, align 8
  %this1 = load ptr, ptr %this.addr, align 8
  %m_correction = getelementptr inbounds %class.btAngularLimit, ptr %this1, i32 0, i32 5
  %0 = load float, ptr %m_correction, align 4
  %m_sign = getelementptr inbounds %class.btAngularLimit, ptr %this1, i32 0, i32 6
  %1 = load float, ptr %m_sign, align 4
  %mul = fmul float %0, %1
  ret float %mul
}